; Function Attrs: mustprogress nofree norecurse nosync nounwind willreturn memory(read, argmem: readwrite, inaccessiblemem: readwrite) uwtable
define void @_ZNK5arrow2io21CompressedInputStream6DoTellEv(ptr noalias nocapture writeonly sret(%"class.arrow::Result.13") align 8 %agg.result, ptr nocapture noundef nonnull readonly align 8 dereferenceable(32) %this) local_unnamed_addr #11 align 2 {
entry:
  %impl_ = getelementptr inbounds i8, ptr %this, i64 24
  %0 = load ptr, ptr %impl_, align 8
  tail call void @llvm.experimental.noalias.scope.decl(metadata !137)
  %total_pos_.i = getelementptr inbounds i8, ptr %0, i64 104
  store ptr null, ptr %agg.result, align 8, !alias.scope !137
  %storage_.i.i.i = getelementptr inbounds i8, ptr %agg.result, i64 8
  %1 = load i64, ptr %total_pos_.i, align 8, !noalias !137
  store i64 %1, ptr %storage_.i.i.i, align 8, !alias.scope !137
  ret void
}